target datalayout = "e-m:e-p270:32:32-p271:32:32-p272:64:64-i64:64-i128:128-f80:128-n8:16:32:64-S128"
target triple = "x86_64-pc-linux-gnu"

%struct.ma_allocation_callbacks = type { ptr, ptr, ptr, ptr }
%struct.ma_lpf = type { i32, i32, i32, i32, i32, ptr, ptr, ptr, i32 }
%struct.ma_biquad = type { i32, i32, %union.ma_biquad_coefficient, %union.ma_biquad_coefficient, %union.ma_biquad_coefficient, %union.ma_biquad_coefficient, %union.ma_biquad_coefficient, ptr, ptr, ptr, i32 }
%union.ma_biquad_coefficient = type { float }
%struct.ma_lpf1 = type { i32, i32, %union.ma_biquad_coefficient, ptr, ptr, i32 }
%struct.ma_lpf2 = type { %struct.ma_biquad }

; Function Attrs: nounwind uwtable
define internal void @ma__free_default(ptr noundef %0, ptr noundef %1) #0 {
  %3 = alloca ptr, align 8
  %4 = alloca ptr, align 8
  store ptr %0, ptr %3, align 8, !tbaa !25
  store ptr %1, ptr %4, align 8, !tbaa !25
  %5 = load ptr, ptr %3, align 8, !tbaa !25
  call void @free(ptr noundef %5) #16
  ret void
}

; Function Attrs: nounwind uwtable
define void @ma_biquad_uninit(ptr noundef %0, ptr noundef %1) #0 {
  %3 = alloca ptr, align 8
  %4 = alloca ptr, align 8
  store ptr %0, ptr %3, align 8, !tbaa !25
  store ptr %1, ptr %4, align 8, !tbaa !25
  %5 = load ptr, ptr %3, align 8, !tbaa !25
  %6 = icmp eq ptr %5, null
  br i1 %6, label %7, label %8

7:                                                ; preds = %2
  br label %18

8:                                                ; preds = %2
  %9 = load ptr, ptr %3, align 8, !tbaa !25
  %10 = getelementptr inbounds nuw %struct.ma_biquad, ptr %9, i32 0, i32 10
  %11 = load i32, ptr %10, align 8, !tbaa !420
  %12 = icmp ne i32 %11, 0
  br i1 %12, label %13, label %18

13:                                               ; preds = %8
  %14 = load ptr, ptr %3, align 8, !tbaa !25
  %15 = getelementptr inbounds nuw %struct.ma_biquad, ptr %14, i32 0, i32 9
  %16 = load ptr, ptr %15, align 8, !tbaa !414
  %17 = load ptr, ptr %4, align 8, !tbaa !25
  call void @ma_free(ptr noundef %16, ptr noundef %17)
  br label %18

18:                                               ; preds = %7, %13, %8
  ret void
}

; Function Attrs: nounwind uwtable
define void @ma_free(ptr noundef %0, ptr noundef %1) #0 {
  %3 = alloca ptr, align 8
  %4 = alloca ptr, align 8
  store ptr %0, ptr %3, align 8, !tbaa !25
  store ptr %1, ptr %4, align 8, !tbaa !25
  %5 = load ptr, ptr %3, align 8, !tbaa !25
  %6 = icmp eq ptr %5, null
  br i1 %6, label %7, label %8

7:                                                ; preds = %2
  br label %28

8:                                                ; preds = %2
  %9 = load ptr, ptr %4, align 8, !tbaa !25
  %10 = icmp ne ptr %9, null
  br i1 %10, label %11, label %26

11:                                               ; preds = %8
  %12 = load ptr, ptr %4, align 8, !tbaa !25
  %13 = getelementptr inbounds nuw %struct.ma_allocation_callbacks, ptr %12, i32 0, i32 3
  %14 = load ptr, ptr %13, align 8, !tbaa !33
  %15 = icmp ne ptr %14, null
  br i1 %15, label %16, label %24

16:                                               ; preds = %11
  %17 = load ptr, ptr %4, align 8, !tbaa !25
  %18 = getelementptr inbounds nuw %struct.ma_allocation_callbacks, ptr %17, i32 0, i32 3
  %19 = load ptr, ptr %18, align 8, !tbaa !33
  %20 = load ptr, ptr %3, align 8, !tbaa !25
  %21 = load ptr, ptr %4, align 8, !tbaa !25
  %22 = getelementptr inbounds nuw %struct.ma_allocation_callbacks, ptr %21, i32 0, i32 0
  %23 = load ptr, ptr %22, align 8, !tbaa !28
  call void %19(ptr noundef %20, ptr noundef %23)
  br label %25

24:                                               ; preds = %11
  br label %28

25:                                               ; preds = %16
  br label %28

26:                                               ; preds = %8
  %27 = load ptr, ptr %3, align 8, !tbaa !25
  call void @ma__free_default(ptr noundef %27, ptr noundef null)
  br label %28

28:                                               ; preds = %7, %24, %26, %25
  ret void
}

; Function Attrs: nounwind uwtable
define void @ma_lpf2_uninit(ptr noundef %0, ptr noundef %1) #0 {
  %3 = alloca ptr, align 8
  %4 = alloca ptr, align 8
  store ptr %0, ptr %3, align 8, !tbaa !25
  store ptr %1, ptr %4, align 8, !tbaa !25
  %5 = load ptr, ptr %3, align 8, !tbaa !25
  %6 = icmp eq ptr %5, null
  br i1 %6, label %7, label %8

7:                                                ; preds = %2
  br label %12

8:                                                ; preds = %2
  %9 = load ptr, ptr %3, align 8, !tbaa !25
  %10 = getelementptr inbounds nuw %struct.ma_lpf2, ptr %9, i32 0, i32 0
  %11 = load ptr, ptr %4, align 8, !tbaa !25
  call void @ma_biquad_uninit(ptr noundef %10, ptr noundef %11)
  br label %12

12:                                               ; preds = %8, %7
  ret void
}

; Function Attrs: nounwind uwtable
define void @ma_lpf1_uninit(ptr noundef %0, ptr noundef %1) #0 {
  %3 = alloca ptr, align 8
  %4 = alloca ptr, align 8
  store ptr %0, ptr %3, align 8, !tbaa !25
  store ptr %1, ptr %4, align 8, !tbaa !25
  %5 = load ptr, ptr %3, align 8, !tbaa !25
  %6 = icmp eq ptr %5, null
  br i1 %6, label %7, label %8

7:                                                ; preds = %2
  br label %18

8:                                                ; preds = %2
  %9 = load ptr, ptr %3, align 8, !tbaa !25
  %10 = getelementptr inbounds nuw %struct.ma_lpf1, ptr %9, i32 0, i32 5
  %11 = load i32, ptr %10, align 8, !tbaa !439
  %12 = icmp ne i32 %11, 0
  br i1 %12, label %13, label %18

13:                                               ; preds = %8
  %14 = load ptr, ptr %3, align 8, !tbaa !25
  %15 = getelementptr inbounds nuw %struct.ma_lpf1, ptr %14, i32 0, i32 4
  %16 = load ptr, ptr %15, align 8, !tbaa !434
  %17 = load ptr, ptr %4, align 8, !tbaa !25
  call void @ma_free(ptr noundef %16, ptr noundef %17)
  br label %18

18:                                               ; preds = %7, %13, %8
  ret void
}

; Function Attrs: nounwind uwtable
define void @ma_lpf_uninit(ptr noundef %0, ptr noundef %1) #0 {
  %3 = alloca ptr, align 8
  %4 = alloca ptr, align 8
  %5 = alloca i32, align 4
  %6 = alloca i32, align 4
  %7 = alloca i32, align 4
  store ptr %0, ptr %3, align 8, !tbaa !25
  store ptr %1, ptr %4, align 8, !tbaa !25
  call void @llvm.lifetime.start.p0(i64 4, ptr %5) #16
  call void @llvm.lifetime.start.p0(i64 4, ptr %6) #16
  %8 = load ptr, ptr %3, align 8, !tbaa !25
  %9 = icmp eq ptr %8, null
  br i1 %9, label %10, label %11

10:                                               ; preds = %2
  store i32 1, ptr %7, align 4
  br label %58

11:                                               ; preds = %2
  store i32 0, ptr %5, align 4, !tbaa !8
  br label %12

12:                                               ; preds = %26, %11
  %13 = load i32, ptr %5, align 4, !tbaa !8
  %14 = load ptr, ptr %3, align 8, !tbaa !25
  %15 = getelementptr inbounds nuw %struct.ma_lpf, ptr %14, i32 0, i32 3
  %16 = load i32, ptr %15, align 4, !tbaa !458
  %17 = icmp ult i32 %13, %16
  br i1 %17, label %18, label %29

18:                                               ; preds = %12
  %19 = load ptr, ptr %3, align 8, !tbaa !25
  %20 = getelementptr inbounds nuw %struct.ma_lpf, ptr %19, i32 0, i32 5
  %21 = load ptr, ptr %20, align 8, !tbaa !461
  %22 = load i32, ptr %5, align 4, !tbaa !8
  %23 = zext i32 %22 to i64
  %24 = getelementptr inbounds nuw %struct.ma_lpf1, ptr %21, i64 %23
  %25 = load ptr, ptr %4, align 8, !tbaa !25
  call void @ma_lpf1_uninit(ptr noundef %24, ptr noundef %25)
  br label %26

26:                                               ; preds = %18
  %27 = load i32, ptr %5, align 4, !tbaa !8
  %28 = add i32 %27, 1
  store i32 %28, ptr %5, align 4, !tbaa !8
  br label %12, !llvm.loop !471

29:                                               ; preds = %12
  store i32 0, ptr %6, align 4, !tbaa !8
  br label %30

30:                                               ; preds = %44, %29
  %31 = load i32, ptr %6, align 4, !tbaa !8
  %32 = load ptr, ptr %3, align 8, !tbaa !25
  %33 = getelementptr inbounds nuw %struct.ma_lpf, ptr %32, i32 0, i32 4
  %34 = load i32, ptr %33, align 8, !tbaa !459
  %35 = icmp ult i32 %31, %34
  br i1 %35, label %36, label %47

36:                                               ; preds = %30
  %37 = load ptr, ptr %3, align 8, !tbaa !25
  %38 = getelementptr inbounds nuw %struct.ma_lpf, ptr %37, i32 0, i32 6
  %39 = load ptr, ptr %38, align 8, !tbaa !462
  %40 = load i32, ptr %6, align 4, !tbaa !8
  %41 = zext i32 %40 to i64
  %42 = getelementptr inbounds nuw %struct.ma_lpf2, ptr %39, i64 %41
  %43 = load ptr, ptr %4, align 8, !tbaa !25
  call void @ma_lpf2_uninit(ptr noundef %42, ptr noundef %43)
  br label %44

44:                                               ; preds = %36
  %45 = load i32, ptr %6, align 4, !tbaa !8
  %46 = add i32 %45, 1
  store i32 %46, ptr %6, align 4, !tbaa !8
  br label %30, !llvm.loop !472

47:                                               ; preds = %30
  %48 = load ptr, ptr %3, align 8, !tbaa !25
  %49 = getelementptr inbounds nuw %struct.ma_lpf, ptr %48, i32 0, i32 8
  %50 = load i32, ptr %49, align 8, !tbaa !470
  %51 = icmp ne i32 %50, 0
  br i1 %51, label %52, label %57

52:                                               ; preds = %47
  %53 = load ptr, ptr %3, align 8, !tbaa !25
  %54 = getelementptr inbounds nuw %struct.ma_lpf, ptr %53, i32 0, i32 7
  %55 = load ptr, ptr %54, align 8, !tbaa !460
  %56 = load ptr, ptr %4, align 8, !tbaa !25
  call void @ma_free(ptr noundef %55, ptr noundef %56)
  br label %57

57:                                               ; preds = %52, %47
  store i32 0, ptr %7, align 4
  br label %58

58:                                               ; preds = %57, %10
  call void @llvm.lifetime.end.p0(i64 4, ptr %6) #16
  call void @llvm.lifetime.end.p0(i64 4, ptr %5) #16
  %59 = load i32, ptr %7, align 4
  switch i32 %59, label %61 [
    i32 0, label %60
    i32 1, label %60
  ]

60:                                               ; preds = %58, %58
  ret void

61:                                               ; preds = %58
  unreachable
}