; Function Attrs: nounwind uwtable
define void @ma_lpf_uninit(ptr noundef readonly captures(address_is_null) %0, ptr noundef readonly captures(address_is_null) %1) local_unnamed_addr #7 {
  %3 = icmp eq ptr %0, null
  br i1 %3, label %ma_free.exit, label %.preheader19

.preheader19:                                     ; preds = %2
  %4 = getelementptr inbounds nuw i8, ptr %0, i64 12
  %5 = load i32, ptr %4, align 4, !tbaa !506
  %.not23 = icmp eq i32 %5, 0
  br i1 %.not23, label %.preheader, label %.lr.ph

.lr.ph:                                           ; preds = %.preheader19
  %6 = getelementptr inbounds nuw i8, ptr %0, i64 24
  %.not.i.i = icmp eq ptr %1, null
  %7 = getelementptr inbounds nuw i8, ptr %1, i64 24
  %8 = load ptr, ptr %6, align 8, !tbaa !512
  %9 = icmp eq ptr %8, null
  br i1 %9, label %.preheader, label %.lr.ph.split

.preheader:                                       ; preds = %ma_lpf1_uninit.exit, %.lr.ph, %.preheader19
  %10 = getelementptr inbounds nuw i8, ptr %0, i64 16
  %11 = load i32, ptr %10, align 8, !tbaa !507
  %.not24 = icmp eq i32 %11, 0
  br i1 %.not24, label %._crit_edge, label %.lr.ph22

.lr.ph22:                                         ; preds = %.preheader
  %12 = getelementptr inbounds nuw i8, ptr %0, i64 32
  %.not.i.i.i = icmp eq ptr %1, null
  %13 = getelementptr inbounds nuw i8, ptr %1, i64 24
  %14 = load ptr, ptr %12, align 8, !tbaa !513
  %15 = icmp eq ptr %14, null
  br i1 %15, label %._crit_edge, label %.lr.ph22.split

.lr.ph.splitthread-pre-split:                     ; preds = %ma_lpf1_uninit.exit
  %.pr = load ptr, ptr %6, align 8, !tbaa !512
  br label %.lr.ph.split

.lr.ph.split:                                     ; preds = %.lr.ph, %.lr.ph.splitthread-pre-split
  %16 = phi ptr [ %.pr, %.lr.ph.splitthread-pre-split ], [ %8, %.lr.ph ]
  %indvars.iv = phi i64 [ %indvars.iv.next, %.lr.ph.splitthread-pre-split ], [ 0, %.lr.ph ]
  %17 = getelementptr inbounds nuw %struct.ma_lpf1, ptr %16, i64 %indvars.iv
  %18 = icmp eq ptr %16, null
  br i1 %18, label %ma_lpf1_uninit.exit, label %19

19:                                               ; preds = %.lr.ph.split
  %20 = getelementptr inbounds nuw i8, ptr %17, i64 32
  %21 = load i32, ptr %20, align 8, !tbaa !473
  %.not.i = icmp eq i32 %21, 0
  br i1 %.not.i, label %ma_lpf1_uninit.exit, label %22

22:                                               ; preds = %19
  %23 = getelementptr inbounds nuw i8, ptr %17, i64 24
  %24 = load ptr, ptr %23, align 8, !tbaa !468
  %25 = icmp eq ptr %24, null
  br i1 %25, label %ma_lpf1_uninit.exit, label %26

26:                                               ; preds = %22
  br i1 %.not.i.i, label %31, label %27

27:                                               ; preds = %26
  %28 = load ptr, ptr %7, align 8, !tbaa !26
  %.not9.i.i = icmp eq ptr %28, null
  br i1 %.not9.i.i, label %ma_lpf1_uninit.exit, label %29

29:                                               ; preds = %27
  %30 = load ptr, ptr %1, align 8, !tbaa !21
  tail call void %28(ptr noundef nonnull %24, ptr noundef %30) #69
  br label %ma_lpf1_uninit.exit

31:                                               ; preds = %26
  tail call void @free(ptr noundef nonnull %24) #69
  br label %ma_lpf1_uninit.exit

ma_lpf1_uninit.exit:                              ; preds = %.lr.ph.split, %19, %22, %27, %29, %31
  %indvars.iv.next = add nuw nsw i64 %indvars.iv, 1
  %32 = load i32, ptr %4, align 4, !tbaa !506
  %33 = zext i32 %32 to i64
  %34 = icmp samesign ult i64 %indvars.iv.next, %33
  br i1 %34, label %.lr.ph.splitthread-pre-split, label %.preheader, !llvm.loop !526

.lr.ph22.splitthread-pre-split:                   ; preds = %ma_lpf2_uninit.exit
  %.pr31 = load ptr, ptr %12, align 8, !tbaa !513
  br label %.lr.ph22.split

.lr.ph22.split:                                   ; preds = %.lr.ph22, %.lr.ph22.splitthread-pre-split
  %35 = phi ptr [ %.pr31, %.lr.ph22.splitthread-pre-split ], [ %14, %.lr.ph22 ]
  %indvars.iv28 = phi i64 [ %indvars.iv.next29, %.lr.ph22.splitthread-pre-split ], [ 0, %.lr.ph22 ]
  %36 = getelementptr inbounds nuw %struct.ma_lpf2, ptr %35, i64 %indvars.iv28
  %37 = icmp eq ptr %35, null
  br i1 %37, label %ma_lpf2_uninit.exit, label %38

38:                                               ; preds = %.lr.ph22.split
  %39 = getelementptr inbounds nuw i8, ptr %36, i64 56
  %40 = load i32, ptr %39, align 8, !tbaa !457
  %.not.i.i17 = icmp eq i32 %40, 0
  br i1 %.not.i.i17, label %ma_lpf2_uninit.exit, label %41

41:                                               ; preds = %38
  %42 = getelementptr inbounds nuw i8, ptr %36, i64 48
  %43 = load ptr, ptr %42, align 8, !tbaa !451
  %44 = icmp eq ptr %43, null
  br i1 %44, label %ma_lpf2_uninit.exit, label %45

45:                                               ; preds = %41
  br i1 %.not.i.i.i, label %50, label %46

46:                                               ; preds = %45
  %47 = load ptr, ptr %13, align 8, !tbaa !26
  %.not9.i.i.i = icmp eq ptr %47, null
  br i1 %.not9.i.i.i, label %ma_lpf2_uninit.exit, label %48

48:                                               ; preds = %46
  %49 = load ptr, ptr %1, align 8, !tbaa !21
  tail call void %47(ptr noundef nonnull %43, ptr noundef %49) #69
  br label %ma_lpf2_uninit.exit

50:                                               ; preds = %45
  tail call void @free(ptr noundef nonnull %43) #69
  br label %ma_lpf2_uninit.exit

ma_lpf2_uninit.exit:                              ; preds = %.lr.ph22.split, %38, %41, %46, %48, %50
  %indvars.iv.next29 = add nuw nsw i64 %indvars.iv28, 1
  %51 = load i32, ptr %10, align 8, !tbaa !507
  %52 = zext i32 %51 to i64
  %53 = icmp samesign ult i64 %indvars.iv.next29, %52
  br i1 %53, label %.lr.ph22.splitthread-pre-split, label %._crit_edge, !llvm.loop !527

._crit_edge:                                      ; preds = %ma_lpf2_uninit.exit, %.lr.ph22, %.preheader
  %54 = getelementptr inbounds nuw i8, ptr %0, i64 48
  %55 = load i32, ptr %54, align 8, !tbaa !525
  %.not = icmp eq i32 %55, 0
  br i1 %.not, label %ma_free.exit, label %56

56:                                               ; preds = %._crit_edge
  %57 = getelementptr inbounds nuw i8, ptr %0, i64 40
  %58 = load ptr, ptr %57, align 8, !tbaa !511
  %59 = icmp eq ptr %58, null
  br i1 %59, label %ma_free.exit, label %60

60:                                               ; preds = %56
  %.not.i18 = icmp eq ptr %1, null
  br i1 %.not.i18, label %66, label %61

61:                                               ; preds = %60
  %62 = getelementptr inbounds nuw i8, ptr %1, i64 24
  %63 = load ptr, ptr %62, align 8, !tbaa !26
  %.not9.i = icmp eq ptr %63, null
  br i1 %.not9.i, label %ma_free.exit, label %64

64:                                               ; preds = %61
  %65 = load ptr, ptr %1, align 8, !tbaa !21
  tail call void %63(ptr noundef nonnull %58, ptr noundef %65) #69
  br label %ma_free.exit

66:                                               ; preds = %60
  tail call void @free(ptr noundef nonnull %58) #69
  br label %ma_free.exit

ma_free.exit:                                     ; preds = %66, %64, %61, %56, %._crit_edge, %2
  ret void
}